; Function Attrs: nounwind sspstrong uwtable
define dso_local noundef i32 @onig_init() local_unnamed_addr #4 {
  %.b = load i1, ptr @onig_inited, align 4
  br i1 %.b, label %3, label %1

1:                                                ; preds = %0
  store i1 true, ptr @onig_inited, align 4
  %2 = tail call i32 @onigenc_init() #20
  br label %3

3:                                                ; preds = %0, %1
  ret i32 0
}